; ModuleID = '14/899.c'
source_filename = "14/899.c"
target datalayout = "e-m:e-p270:32:32-p271:32:32-p272:64:64-i64:64-f80:128-n8:16:32:64-S128"
target triple = "x86_64-pc-linux-gnu"

%struct.stu = type { i32, i32, i32, i32, i32, %struct.stu* }

@.str = private unnamed_addr constant [3 x i8] c"%d\00", align 1
@.str.1 = private unnamed_addr constant [7 x i8] c"%d%d%d\00", align 1
@.str.2 = private unnamed_addr constant [7 x i8] c"%d %d\0A\00", align 1

; Function Attrs: noinline nounwind uwtable
define dso_local void @main() #0 {
  %1 = alloca %struct.stu*, align 8
  %2 = alloca %struct.stu*, align 8
  %3 = alloca %struct.stu*, align 8
  %4 = alloca %struct.stu*, align 8
  %5 = alloca %struct.stu*, align 8
  %6 = alloca i32, align 4
  %7 = alloca i32, align 4
  %8 = alloca i32, align 4
  %9 = call i32 (i8*, ...) @__isoc99_scanf(i8* getelementptr inbounds ([3 x i8], [3 x i8]* @.str, i64 0, i64 0), i32* %6)
  %10 = call noalias i8* @malloc(i64 100) #3
  %11 = bitcast i8* %10 to %struct.stu*
  store %struct.stu* %11, %struct.stu** %4, align 8
  store %struct.stu* %11, %struct.stu** %3, align 8
  %12 = load %struct.stu*, %struct.stu** %3, align 8
  %13 = getelementptr inbounds %struct.stu, %struct.stu* %12, i32 0, i32 0
  %14 = load %struct.stu*, %struct.stu** %3, align 8
  %15 = getelementptr inbounds %struct.stu, %struct.stu* %14, i32 0, i32 1
  %16 = load %struct.stu*, %struct.stu** %3, align 8
  %17 = getelementptr inbounds %struct.stu, %struct.stu* %16, i32 0, i32 2
  %18 = call i32 (i8*, ...) @__isoc99_scanf(i8* getelementptr inbounds ([7 x i8], [7 x i8]* @.str.1, i64 0, i64 0), i32* %13, i32* %15, i32* %17)
  %19 = load %struct.stu*, %struct.stu** %3, align 8
  %20 = getelementptr inbounds %struct.stu, %struct.stu* %19, i32 0, i32 1
  %21 = load i32, i32* %20, align 4
  %22 = load %struct.stu*, %struct.stu** %3, align 8
  %23 = getelementptr inbounds %struct.stu, %struct.stu* %22, i32 0, i32 2
  %24 = load i32, i32* %23, align 8
  %25 = add nsw i32 %21, %24
  %26 = load %struct.stu*, %struct.stu** %3, align 8
  %27 = getelementptr inbounds %struct.stu, %struct.stu* %26, i32 0, i32 3
  store i32 %25, i32* %27, align 4
  %28 = load %struct.stu*, %struct.stu** %3, align 8
  %29 = getelementptr inbounds %struct.stu, %struct.stu* %28, i32 0, i32 4
  store i32 0, i32* %29, align 8
  %30 = load %struct.stu*, %struct.stu** %3, align 8
  %31 = getelementptr inbounds %struct.stu, %struct.stu* %30, i32 0, i32 5
  store %struct.stu* null, %struct.stu** %31, align 8
  %32 = load %struct.stu*, %struct.stu** %3, align 8
  store %struct.stu* %32, %struct.stu** %2, align 8
  store i32 0, i32* %7, align 4
  br label %33

33:                                               ; preds = %65, %0
  %34 = load i32, i32* %7, align 4
  %35 = load i32, i32* %6, align 4
  %36 = sub nsw i32 %35, 1
  %37 = icmp slt i32 %34, %36
  br i1 %37, label %38, label %68

38:                                               ; preds = %33
  %39 = load %struct.stu*, %struct.stu** %3, align 8
  store %struct.stu* %39, %struct.stu** %4, align 8
  %40 = call noalias i8* @malloc(i64 100) #3
  %41 = bitcast i8* %40 to %struct.stu*
  store %struct.stu* %41, %struct.stu** %3, align 8
  %42 = load %struct.stu*, %struct.stu** %3, align 8
  %43 = getelementptr inbounds %struct.stu, %struct.stu* %42, i32 0, i32 0
  %44 = load %struct.stu*, %struct.stu** %3, align 8
  %45 = getelementptr inbounds %struct.stu, %struct.stu* %44, i32 0, i32 1
  %46 = load %struct.stu*, %struct.stu** %3, align 8
  %47 = getelementptr inbounds %struct.stu, %struct.stu* %46, i32 0, i32 2
  %48 = call i32 (i8*, ...) @__isoc99_scanf(i8* getelementptr inbounds ([7 x i8], [7 x i8]* @.str.1, i64 0, i64 0), i32* %43, i32* %45, i32* %47)
  %49 = load %struct.stu*, %struct.stu** %3, align 8
  %50 = getelementptr inbounds %struct.stu, %struct.stu* %49, i32 0, i32 1
  %51 = load i32, i32* %50, align 4
  %52 = load %struct.stu*, %struct.stu** %3, align 8
  %53 = getelementptr inbounds %struct.stu, %struct.stu* %52, i32 0, i32 2
  %54 = load i32, i32* %53, align 8
  %55 = add nsw i32 %51, %54
  %56 = load %struct.stu*, %struct.stu** %3, align 8
  %57 = getelementptr inbounds %struct.stu, %struct.stu* %56, i32 0, i32 3
  store i32 %55, i32* %57, align 4
  %58 = load %struct.stu*, %struct.stu** %3, align 8
  %59 = getelementptr inbounds %struct.stu, %struct.stu* %58, i32 0, i32 4
  store i32 0, i32* %59, align 8
  %60 = load %struct.stu*, %struct.stu** %3, align 8
  %61 = getelementptr inbounds %struct.stu, %struct.stu* %60, i32 0, i32 5
  store %struct.stu* null, %struct.stu** %61, align 8
  %62 = load %struct.stu*, %struct.stu** %3, align 8
  %63 = load %struct.stu*, %struct.stu** %4, align 8
  %64 = getelementptr inbounds %struct.stu, %struct.stu* %63, i32 0, i32 5
  store %struct.stu* %62, %struct.stu** %64, align 8
  br label %65

65:                                               ; preds = %38
  %66 = load i32, i32* %7, align 4
  %67 = add nsw i32 %66, 1
  store i32 %67, i32* %7, align 4
  br label %33

68:                                               ; preds = %33
  store i32 0, i32* %7, align 4
  br label %69

69:                                               ; preds = %108, %68
  %70 = load i32, i32* %7, align 4
  %71 = icmp slt i32 %70, 3
  br i1 %71, label %72, label %111

72:                                               ; preds = %69
  %73 = load %struct.stu*, %struct.stu** %2, align 8
  store %struct.stu* %73, %struct.stu** %1, align 8
  store i32 0, i32* %8, align 4
  br label %74

74:                                               ; preds = %94, %72
  %75 = load %struct.stu*, %struct.stu** %1, align 8
  %76 = icmp ne %struct.stu* %75, null
  br i1 %76, label %77, label %98

77:                                               ; preds = %74
  %78 = load i32, i32* %8, align 4
  %79 = load %struct.stu*, %struct.stu** %1, align 8
  %80 = getelementptr inbounds %struct.stu, %struct.stu* %79, i32 0, i32 3
  %81 = load i32, i32* %80, align 4
  %82 = icmp slt i32 %78, %81
  br i1 %82, label %83, label %93

83:                                               ; preds = %77
  %84 = load %struct.stu*, %struct.stu** %1, align 8
  %85 = getelementptr inbounds %struct.stu, %struct.stu* %84, i32 0, i32 4
  %86 = load i32, i32* %85, align 8
  %87 = icmp eq i32 %86, 0
  br i1 %87, label %88, label %93

88:                                               ; preds = %83
  %89 = load %struct.stu*, %struct.stu** %1, align 8
  %90 = getelementptr inbounds %struct.stu, %struct.stu* %89, i32 0, i32 3
  %91 = load i32, i32* %90, align 4
  store i32 %91, i32* %8, align 4
  %92 = load %struct.stu*, %struct.stu** %1, align 8
  store %struct.stu* %92, %struct.stu** %5, align 8
  br label %93

93:                                               ; preds = %88, %83, %77
  br label %94

94:                                               ; preds = %93
  %95 = load %struct.stu*, %struct.stu** %1, align 8
  %96 = getelementptr inbounds %struct.stu, %struct.stu* %95, i32 0, i32 5
  %97 = load %struct.stu*, %struct.stu** %96, align 8
  store %struct.stu* %97, %struct.stu** %1, align 8
  br label %74

98:                                               ; preds = %74
  %99 = load %struct.stu*, %struct.stu** %5, align 8
  %100 = getelementptr inbounds %struct.stu, %struct.stu* %99, i32 0, i32 4
  store i32 1, i32* %100, align 8
  %101 = load %struct.stu*, %struct.stu** %5, align 8
  %102 = getelementptr inbounds %struct.stu, %struct.stu* %101, i32 0, i32 0
  %103 = load i32, i32* %102, align 8
  %104 = load %struct.stu*, %struct.stu** %5, align 8
  %105 = getelementptr inbounds %struct.stu, %struct.stu* %104, i32 0, i32 3
  %106 = load i32, i32* %105, align 4
  %107 = call i32 (i8*, ...) @printf(i8* getelementptr inbounds ([7 x i8], [7 x i8]* @.str.2, i64 0, i64 0), i32 %103, i32 %106)
  br label %108

108:                                              ; preds = %98
  %109 = load i32, i32* %7, align 4
  %110 = add nsw i32 %109, 1
  store i32 %110, i32* %7, align 4
  br label %69

111:                                              ; preds = %69
  ret void
}

declare dso_local i32 @__isoc99_scanf(i8*, ...) #1

; Function Attrs: nounwind
declare dso_local noalias i8* @malloc(i64) #2

declare dso_local i32 @printf(i8*, ...) #1


!llvm.module.flags = !{!0}
!llvm.ident = !{!1}

!0 = !{i32 1, !"wchar_size", i32 4}
!1 = !{!"clang version 10.0.0-4ubuntu1 "}
